target datalayout = "e-m:e-p270:32:32-p271:32:32-p272:64:64-i64:64-i128:128-f80:128-n8:16:32:64-S128"
target triple = "x86_64-pc-linux-gnu"

%"class.LightGBM::BruckMap" = type { i32, %"class.std::vector", %"class.std::vector" }
%"class.std::vector" = type { %"struct.std::_Vector_base" }
%"struct.std::_Vector_base" = type { %"struct.std::_Vector_base<int, std::allocator<int>>::_Vector_impl" }
%"struct.std::_Vector_base<int, std::allocator<int>>::_Vector_impl" = type { %"struct.std::_Vector_base<int, std::allocator<int>>::_Vector_impl_data" }
%"struct.std::_Vector_base<int, std::allocator<int>>::_Vector_impl_data" = type { ptr, ptr, ptr }
%"class.std::unique_ptr" = type { %"struct.std::__uniq_ptr_data" }
%"struct.std::__uniq_ptr_data" = type { %"class.std::__uniq_ptr_impl" }
%"class.std::__uniq_ptr_impl" = type { %"class.std::tuple" }
%"class.std::tuple" = type { %"struct.std::_Tuple_impl" }
%"struct.std::_Tuple_impl" = type { %"struct.std::_Head_base.1" }
%"struct.std::_Head_base.1" = type { ptr }

@_ZN8LightGBM7Network5rank_E = thread_local global i32 0, align 4
@_ZN8LightGBM7Network8linkers_E = thread_local global { { { ptr } } } zeroinitializer, align 8
@_ZN8LightGBM7Network10bruck_map_E = thread_local global %"class.LightGBM::BruckMap" zeroinitializer, align 8
@_ZTHN8LightGBM7Network8linkers_E = alias void (), ptr @__tls_init
@_ZTHN8LightGBM7Network10bruck_map_E = alias void (), ptr @__tls_init

; Function Attrs: mustprogress nounwind uwtable
define linkonce_odr noundef nonnull align 8 dereferenceable(8) ptr @_ZNSt10_Head_baseILm0EPN8LightGBM7LinkersELb0EE7_M_headERKS3_(ptr noundef nonnull align 8 dereferenceable(8) %0) #4 comdat align 2 {
  %2 = alloca ptr, align 8
  store ptr %0, ptr %2, align 8, !tbaa !22
  %3 = load ptr, ptr %2, align 8, !tbaa !22
  %4 = getelementptr inbounds nuw %"struct.std::_Head_base.1", ptr %3, i32 0, i32 0
  ret ptr %4
}

; Function Attrs: mustprogress nounwind uwtable
define linkonce_odr noundef nonnull align 8 dereferenceable(8) ptr @_ZNSt11_Tuple_implILm0EJPN8LightGBM7LinkersESt14default_deleteIS1_EEE7_M_headERKS5_(ptr noundef nonnull align 8 dereferenceable(8) %0) #4 comdat align 2 {
  %2 = alloca ptr, align 8
  store ptr %0, ptr %2, align 8, !tbaa !20
  %3 = load ptr, ptr %2, align 8, !tbaa !20
  %4 = call noundef nonnull align 8 dereferenceable(8) ptr @_ZNSt10_Head_baseILm0EPN8LightGBM7LinkersELb0EE7_M_headERKS3_(ptr noundef nonnull align 8 dereferenceable(8) %3) #3
  ret ptr %4
}

; Function Attrs: mustprogress nounwind uwtable
define linkonce_odr noundef nonnull align 8 dereferenceable(8) ptr @_ZSt12__get_helperILm0EPN8LightGBM7LinkersEJSt14default_deleteIS1_EEERKT0_RKSt11_Tuple_implIXT_EJS5_DpT1_EE(ptr noundef nonnull align 8 dereferenceable(8) %0) #4 comdat {
  %2 = alloca ptr, align 8
  store ptr %0, ptr %2, align 8, !tbaa !20
  %3 = load ptr, ptr %2, align 8, !tbaa !20
  %4 = call noundef nonnull align 8 dereferenceable(8) ptr @_ZNSt11_Tuple_implILm0EJPN8LightGBM7LinkersESt14default_deleteIS1_EEE7_M_headERKS5_(ptr noundef nonnull align 8 dereferenceable(8) %3) #3
  ret ptr %4
}

; Function Attrs: mustprogress nounwind uwtable
define linkonce_odr noundef nonnull align 8 dereferenceable(8) ptr @_ZSt3getILm0EJPN8LightGBM7LinkersESt14default_deleteIS1_EEERKNSt13tuple_elementIXT_ESt5tupleIJDpT0_EEE4typeERKS9_(ptr noundef nonnull align 8 dereferenceable(8) %0) #4 comdat {
  %2 = alloca ptr, align 8
  store ptr %0, ptr %2, align 8, !tbaa !18
  %3 = load ptr, ptr %2, align 8, !tbaa !18
  %4 = call noundef nonnull align 8 dereferenceable(8) ptr @_ZSt12__get_helperILm0EPN8LightGBM7LinkersEJSt14default_deleteIS1_EEERKT0_RKSt11_Tuple_implIXT_EJS5_DpT1_EE(ptr noundef nonnull align 8 dereferenceable(8) %3) #3
  ret ptr %4
}

; Function Attrs: mustprogress nounwind uwtable
define linkonce_odr noundef ptr @_ZNKSt15__uniq_ptr_implIN8LightGBM7LinkersESt14default_deleteIS1_EE6_M_ptrEv(ptr noundef nonnull align 8 dereferenceable(8) %0) #4 comdat align 2 {
  %2 = alloca ptr, align 8
  store ptr %0, ptr %2, align 8, !tbaa !14
  %3 = load ptr, ptr %2, align 8
  %4 = getelementptr inbounds nuw %"class.std::__uniq_ptr_impl", ptr %3, i32 0, i32 0
  %5 = call noundef nonnull align 8 dereferenceable(8) ptr @_ZSt3getILm0EJPN8LightGBM7LinkersESt14default_deleteIS1_EEERKNSt13tuple_elementIXT_ESt5tupleIJDpT0_EEE4typeERKS9_(ptr noundef nonnull align 8 dereferenceable(8) %4) #3
  %6 = load ptr, ptr %5, align 8, !tbaa !12
  ret ptr %6
}

; Function Attrs: mustprogress nounwind uwtable
define linkonce_odr noundef ptr @_ZNKSt10unique_ptrIN8LightGBM7LinkersESt14default_deleteIS1_EE3getEv(ptr noundef nonnull align 8 dereferenceable(8) %0) #4 comdat align 2 {
  %2 = alloca ptr, align 8
  store ptr %0, ptr %2, align 8, !tbaa !4
  %3 = load ptr, ptr %2, align 8
  %4 = getelementptr inbounds nuw %"class.std::unique_ptr", ptr %3, i32 0, i32 0
  %5 = call noundef ptr @_ZNKSt15__uniq_ptr_implIN8LightGBM7LinkersESt14default_deleteIS1_EE6_M_ptrEv(ptr noundef nonnull align 8 dereferenceable(8) %4) #3
  ret ptr %5
}

; Function Attrs: mustprogress nounwind uwtable
define linkonce_odr noundef ptr @_ZNKSt10unique_ptrIN8LightGBM7LinkersESt14default_deleteIS1_EEptEv(ptr noundef nonnull align 8 dereferenceable(8) %0) #4 comdat align 2 {
  %2 = alloca ptr, align 8
  store ptr %0, ptr %2, align 8, !tbaa !4
  %3 = load ptr, ptr %2, align 8
  %4 = call noundef ptr @_ZNKSt10unique_ptrIN8LightGBM7LinkersESt14default_deleteIS1_EE3getEv(ptr noundef nonnull align 8 dereferenceable(8) %3) #3
  ret ptr %4
}

; Function Attrs: uwtable
define weak_odr hidden noundef ptr @_ZTWN8LightGBM7Network8linkers_E() #11 comdat {
  call void @_ZTHN8LightGBM7Network8linkers_E()
  %1 = call align 8 ptr @llvm.threadlocal.address.p0(ptr align 8 @_ZN8LightGBM7Network8linkers_E)
  ret ptr %1
}

; Function Attrs: uwtable
define weak_odr hidden noundef ptr @_ZTWN8LightGBM7Network10bruck_map_E() #11 comdat {
  call void @_ZTHN8LightGBM7Network10bruck_map_E()
  %1 = call align 8 ptr @llvm.threadlocal.address.p0(ptr align 8 @_ZN8LightGBM7Network10bruck_map_E)
  ret ptr %1
}

; Function Attrs: mustprogress uwtable
define void @_ZN8LightGBM7Network26AllgatherRecursiveDoublingEPcPKiS3_S1_i(ptr noundef %0, ptr noundef %1, ptr noundef %2, ptr noundef %3, i32 noundef %4) #10 align 2 {
  %6 = alloca ptr, align 8
  %7 = alloca ptr, align 8
  %8 = alloca ptr, align 8
  %9 = alloca ptr, align 8
  %10 = alloca i32, align 4
  %11 = alloca i32, align 4
  %12 = alloca i32, align 4
  %13 = alloca i32, align 4
  %14 = alloca i32, align 4
  %15 = alloca i32, align 4
  %16 = alloca i32, align 4
  %17 = alloca i32, align 4
  %18 = alloca i32, align 4
  %19 = alloca i32, align 4
  %20 = alloca i32, align 4
  store ptr %0, ptr %6, align 8, !tbaa !65
  store ptr %1, ptr %7, align 8, !tbaa !36
  store ptr %2, ptr %8, align 8, !tbaa !36
  store ptr %3, ptr %9, align 8, !tbaa !65
  store i32 %4, ptr %10, align 4, !tbaa !104
  %21 = load ptr, ptr %9, align 8, !tbaa !65
  %22 = load ptr, ptr %7, align 8, !tbaa !36
  %23 = call align 4 ptr @llvm.threadlocal.address.p0(ptr align 4 @_ZN8LightGBM7Network5rank_E)
  %24 = load i32, ptr %23, align 4, !tbaa !104
  %25 = sext i32 %24 to i64
  %26 = getelementptr inbounds i32, ptr %22, i64 %25
  %27 = load i32, ptr %26, align 4, !tbaa !104
  %28 = sext i32 %27 to i64
  %29 = getelementptr inbounds i8, ptr %21, i64 %28
  %30 = load ptr, ptr %6, align 8, !tbaa !65
  %31 = load ptr, ptr %8, align 8, !tbaa !36
  %32 = call align 4 ptr @llvm.threadlocal.address.p0(ptr align 4 @_ZN8LightGBM7Network5rank_E)
  %33 = load i32, ptr %32, align 4, !tbaa !104
  %34 = sext i32 %33 to i64
  %35 = getelementptr inbounds i32, ptr %31, i64 %34
  %36 = load i32, ptr %35, align 4, !tbaa !104
  %37 = sext i32 %36 to i64
  call void @llvm.memcpy.p0.p0.i64(ptr align 1 %29, ptr align 1 %30, i64 %37, i1 false)
  call void @llvm.lifetime.start.p0(i64 4, ptr %11) #3
  store i32 0, ptr %11, align 4, !tbaa !104
  br label %38

38:                                               ; preds = %126, %5
  %39 = load i32, ptr %11, align 4, !tbaa !104
  %40 = call ptr @_ZTWN8LightGBM7Network10bruck_map_E()
  %41 = getelementptr inbounds nuw %"class.LightGBM::BruckMap", ptr %40, i32 0, i32 0
  %42 = load i32, ptr %41, align 8, !tbaa !131
  %43 = icmp slt i32 %39, %42
  br i1 %43, label %45, label %44

44:                                               ; preds = %38
  store i32 2, ptr %12, align 4
  call void @llvm.lifetime.end.p0(i64 4, ptr %11) #3
  br label %129

45:                                               ; preds = %38
  call void @llvm.lifetime.start.p0(i64 4, ptr %13) #3
  %46 = load i32, ptr %11, align 4, !tbaa !104
  %47 = shl i32 1, %46
  store i32 %47, ptr %13, align 4, !tbaa !104
  call void @llvm.lifetime.start.p0(i64 4, ptr %14) #3
  %48 = call align 4 ptr @llvm.threadlocal.address.p0(ptr align 4 @_ZN8LightGBM7Network5rank_E)
  %49 = load i32, ptr %48, align 4, !tbaa !104
  %50 = load i32, ptr %13, align 4, !tbaa !104
  %51 = sdiv i32 %49, %50
  store i32 %51, ptr %14, align 4, !tbaa !104
  call void @llvm.lifetime.start.p0(i64 4, ptr %15) #3
  %52 = load i32, ptr %14, align 4, !tbaa !104
  %53 = load i32, ptr %13, align 4, !tbaa !104
  %54 = mul nsw i32 %52, %53
  store i32 %54, ptr %15, align 4, !tbaa !104
  call void @llvm.lifetime.start.p0(i64 4, ptr %16) #3
  %55 = call align 4 ptr @llvm.threadlocal.address.p0(ptr align 4 @_ZN8LightGBM7Network5rank_E)
  %56 = load i32, ptr %55, align 4, !tbaa !104
  %57 = load i32, ptr %13, align 4, !tbaa !104
  %58 = add nsw i32 %56, %57
  store i32 %58, ptr %16, align 4, !tbaa !104
  call void @llvm.lifetime.start.p0(i64 4, ptr %17) #3
  %59 = load i32, ptr %14, align 4, !tbaa !104
  %60 = add nsw i32 %59, 1
  %61 = load i32, ptr %13, align 4, !tbaa !104
  %62 = mul nsw i32 %60, %61
  store i32 %62, ptr %17, align 4, !tbaa !104
  %63 = load i32, ptr %14, align 4, !tbaa !104
  %64 = and i32 %63, 1
  %65 = icmp ne i32 %64, 0
  br i1 %65, label %66, label %75

66:                                               ; preds = %45
  %67 = call align 4 ptr @llvm.threadlocal.address.p0(ptr align 4 @_ZN8LightGBM7Network5rank_E)
  %68 = load i32, ptr %67, align 4, !tbaa !104
  %69 = load i32, ptr %13, align 4, !tbaa !104
  %70 = sub nsw i32 %68, %69
  store i32 %70, ptr %16, align 4, !tbaa !104
  %71 = load i32, ptr %14, align 4, !tbaa !104
  %72 = sub nsw i32 %71, 1
  %73 = load i32, ptr %13, align 4, !tbaa !104
  %74 = mul nsw i32 %72, %73
  store i32 %74, ptr %17, align 4, !tbaa !104
  br label %75

75:                                               ; preds = %66, %45
  call void @llvm.lifetime.start.p0(i64 4, ptr %18) #3
  store i32 0, ptr %18, align 4, !tbaa !104
  call void @llvm.lifetime.start.p0(i64 4, ptr %19) #3
  store i32 0, ptr %19, align 4, !tbaa !104
  call void @llvm.lifetime.start.p0(i64 4, ptr %20) #3
  store i32 0, ptr %20, align 4, !tbaa !104
  br label %76

76:                                               ; preds = %100, %75
  %77 = load i32, ptr %20, align 4, !tbaa !104
  %78 = load i32, ptr %13, align 4, !tbaa !104
  %79 = icmp slt i32 %77, %78
  br i1 %79, label %81, label %80

80:                                               ; preds = %76
  store i32 5, ptr %12, align 4
  call void @llvm.lifetime.end.p0(i64 4, ptr %20) #3
  br label %103

81:                                               ; preds = %76
  %82 = load ptr, ptr %8, align 8, !tbaa !36
  %83 = load i32, ptr %15, align 4, !tbaa !104
  %84 = load i32, ptr %20, align 4, !tbaa !104
  %85 = add nsw i32 %83, %84
  %86 = sext i32 %85 to i64
  %87 = getelementptr inbounds i32, ptr %82, i64 %86
  %88 = load i32, ptr %87, align 4, !tbaa !104
  %89 = load i32, ptr %18, align 4, !tbaa !104
  %90 = add nsw i32 %89, %88
  store i32 %90, ptr %18, align 4, !tbaa !104
  %91 = load ptr, ptr %8, align 8, !tbaa !36
  %92 = load i32, ptr %17, align 4, !tbaa !104
  %93 = load i32, ptr %20, align 4, !tbaa !104
  %94 = add nsw i32 %92, %93
  %95 = sext i32 %94 to i64
  %96 = getelementptr inbounds i32, ptr %91, i64 %95
  %97 = load i32, ptr %96, align 4, !tbaa !104
  %98 = load i32, ptr %19, align 4, !tbaa !104
  %99 = add nsw i32 %98, %97
  store i32 %99, ptr %19, align 4, !tbaa !104
  br label %100

100:                                              ; preds = %81
  %101 = load i32, ptr %20, align 4, !tbaa !104
  %102 = add nsw i32 %101, 1
  store i32 %102, ptr %20, align 4, !tbaa !104
  br label %76, !llvm.loop !329

103:                                              ; preds = %80
  %104 = call ptr @_ZTWN8LightGBM7Network8linkers_E()
  %105 = call noundef ptr @_ZNKSt10unique_ptrIN8LightGBM7LinkersESt14default_deleteIS1_EEptEv(ptr noundef nonnull align 8 dereferenceable(8) %104) #3
  %106 = load i32, ptr %16, align 4, !tbaa !104
  %107 = load ptr, ptr %9, align 8, !tbaa !65
  %108 = load ptr, ptr %7, align 8, !tbaa !36
  %109 = load i32, ptr %15, align 4, !tbaa !104
  %110 = sext i32 %109 to i64
  %111 = getelementptr inbounds i32, ptr %108, i64 %110
  %112 = load i32, ptr %111, align 4, !tbaa !104
  %113 = sext i32 %112 to i64
  %114 = getelementptr inbounds i8, ptr %107, i64 %113
  %115 = load i32, ptr %18, align 4, !tbaa !104
  %116 = load i32, ptr %16, align 4, !tbaa !104
  %117 = load ptr, ptr %9, align 8, !tbaa !65
  %118 = load ptr, ptr %7, align 8, !tbaa !36
  %119 = load i32, ptr %17, align 4, !tbaa !104
  %120 = sext i32 %119 to i64
  %121 = getelementptr inbounds i32, ptr %118, i64 %120
  %122 = load i32, ptr %121, align 4, !tbaa !104
  %123 = sext i32 %122 to i64
  %124 = getelementptr inbounds i8, ptr %117, i64 %123
  %125 = load i32, ptr %19, align 4, !tbaa !104
  call void @_ZN8LightGBM7Linkers8SendRecvEiPciiS1_i(ptr noundef nonnull align 8 dereferenceable(304) %105, i32 noundef %106, ptr noundef %114, i32 noundef %115, i32 noundef %116, ptr noundef %124, i32 noundef %125)
  call void @llvm.lifetime.end.p0(i64 4, ptr %19) #3
  call void @llvm.lifetime.end.p0(i64 4, ptr %18) #3
  call void @llvm.lifetime.end.p0(i64 4, ptr %17) #3
  call void @llvm.lifetime.end.p0(i64 4, ptr %16) #3
  call void @llvm.lifetime.end.p0(i64 4, ptr %15) #3
  call void @llvm.lifetime.end.p0(i64 4, ptr %14) #3
  call void @llvm.lifetime.end.p0(i64 4, ptr %13) #3
  br label %126

126:                                              ; preds = %103
  %127 = load i32, ptr %11, align 4, !tbaa !104
  %128 = add nsw i32 %127, 1
  store i32 %128, ptr %11, align 4, !tbaa !104
  br label %38, !llvm.loop !330

129:                                              ; preds = %44
  ret void
}