; Function Attrs: uwtable
define void @_ZN8LightGBM7Network26AllgatherRecursiveDoublingEPcPKiS3_S1_i(ptr noundef readonly captures(none) %0, ptr noundef readonly captures(none) %1, ptr noundef readonly captures(none) %2, ptr noundef %3, i32 noundef %4) local_unnamed_addr #11 align 2 {
  %6 = tail call align 4 ptr @llvm.threadlocal.address.p0(ptr align 4 @_ZN8LightGBM7Network5rank_E)
  %7 = load i32, ptr %6, align 4, !tbaa !69
  %8 = sext i32 %7 to i64
  %9 = getelementptr inbounds i32, ptr %1, i64 %8
  %10 = load i32, ptr %9, align 4, !tbaa !69
  %11 = sext i32 %10 to i64
  %12 = getelementptr inbounds i8, ptr %3, i64 %11
  %13 = getelementptr inbounds i32, ptr %2, i64 %8
  %14 = load i32, ptr %13, align 4, !tbaa !69
  %15 = sext i32 %14 to i64
  tail call void @llvm.memcpy.p0.p0.i64(ptr align 1 %12, ptr align 1 %0, i64 %15, i1 false)
  tail call void @_ZTHN8LightGBM7Network10bruck_map_E()
  %16 = tail call noundef align 8 ptr @llvm.threadlocal.address.p0(ptr align 8 @_ZN8LightGBM7Network10bruck_map_E)
  %17 = load i32, ptr %16, align 8, !tbaa !71
  %18 = icmp sgt i32 %17, 0
  br i1 %18, label %.lr.ph48, label %._crit_edge49

.lr.ph48:                                         ; preds = %5
  %19 = tail call align 8 ptr @llvm.threadlocal.address.p0(ptr align 8 @_ZN8LightGBM7Network8linkers_E)
  br label %20

._crit_edge49:                                    ; preds = %._crit_edge, %5
  ret void

20:                                               ; preds = %.lr.ph48, %._crit_edge
  %.04146 = phi i32 [ 0, %.lr.ph48 ], [ %36, %._crit_edge ]
  %21 = shl nuw i32 1, %.04146
  %22 = load i32, ptr %6, align 4, !tbaa !69
  %23 = sdiv i32 %22, %21
  %24 = shl i32 %23, %.04146
  %25 = and i32 %23, 1
  %.not = icmp eq i32 %25, 0
  %26 = sub i32 0, %21
  %.040.p = select i1 %.not, i32 %21, i32 %26
  %.040 = add i32 %.040.p, %22
  %.pn.v = select i1 %.not, i32 1, i32 -1
  %.pn = add nsw i32 %.pn.v, %23
  %.039 = shl i32 %.pn, %.04146
  %.not50 = icmp eq i32 %.04146, 31
  %.pre = sext i32 %24 to i64
  %.pre53 = sext i32 %.039 to i64
  br i1 %.not50, label %._crit_edge, label %.lr.ph.preheader

.lr.ph.preheader:                                 ; preds = %20
  %smax = tail call i32 @llvm.smax.i32(i32 %21, i32 1)
  %wide.trip.count = zext nneg i32 %smax to i64
  %invariant.gep = getelementptr i32, ptr %2, i64 %.pre
  %invariant.gep56 = getelementptr i32, ptr %2, i64 %.pre53
  br label %.lr.ph

._crit_edge:                                      ; preds = %.lr.ph, %20
  %.038.lcssa = phi i32 [ 0, %20 ], [ %40, %.lr.ph ]
  %.037.lcssa = phi i32 [ 0, %20 ], [ %42, %.lr.ph ]
  tail call void @_ZTHN8LightGBM7Network8linkers_E()
  %27 = load ptr, ptr %19, align 8, !tbaa !4
  %28 = getelementptr inbounds i32, ptr %1, i64 %.pre
  %29 = load i32, ptr %28, align 4, !tbaa !69
  %30 = sext i32 %29 to i64
  %31 = getelementptr inbounds i8, ptr %3, i64 %30
  %32 = getelementptr inbounds i32, ptr %1, i64 %.pre53
  %33 = load i32, ptr %32, align 4, !tbaa !69
  %34 = sext i32 %33 to i64
  %35 = getelementptr inbounds i8, ptr %3, i64 %34
  tail call void @_ZN8LightGBM7Linkers8SendRecvEiPciiS1_i(ptr noundef nonnull align 8 dereferenceable(304) %27, i32 noundef %.040, ptr noundef %31, i32 noundef %.038.lcssa, i32 noundef %.040, ptr noundef %35, i32 noundef %.037.lcssa)
  %36 = add nuw nsw i32 %.04146, 1
  tail call void @_ZTHN8LightGBM7Network10bruck_map_E()
  %37 = load i32, ptr %16, align 8, !tbaa !71
  %38 = icmp slt i32 %36, %37
  br i1 %38, label %20, label %._crit_edge49, !llvm.loop !134

.lr.ph:                                           ; preds = %.lr.ph.preheader, %.lr.ph
  %indvars.iv = phi i64 [ 0, %.lr.ph.preheader ], [ %indvars.iv.next, %.lr.ph ]
  %.03743 = phi i32 [ 0, %.lr.ph.preheader ], [ %42, %.lr.ph ]
  %.03842 = phi i32 [ 0, %.lr.ph.preheader ], [ %40, %.lr.ph ]
  %gep = getelementptr i32, ptr %invariant.gep, i64 %indvars.iv
  %39 = load i32, ptr %gep, align 4, !tbaa !69
  %40 = add nsw i32 %39, %.03842
  %gep57 = getelementptr i32, ptr %invariant.gep56, i64 %indvars.iv
  %41 = load i32, ptr %gep57, align 4, !tbaa !69
  %42 = add nsw i32 %41, %.03743
  %indvars.iv.next = add nuw nsw i64 %indvars.iv, 1
  %exitcond.not = icmp eq i64 %indvars.iv.next, %wide.trip.count
  br i1 %exitcond.not, label %._crit_edge, label %.lr.ph, !llvm.loop !135
}